; Function Attrs: nounwind uwtable
define void @addStringToQASM(ptr noundef readonly byval(%struct.Qureg) align 8 captures(none) %0, ptr noundef %1, i32 noundef %2) local_unnamed_addr #0 {
  %4 = getelementptr inbounds nuw i8, ptr %0, i64 128
  %5 = load ptr, ptr %4, align 8, !tbaa !4
  %6 = load ptr, ptr %5, align 8, !tbaa !18
  %7 = getelementptr inbounds nuw i8, ptr %5, i64 8
  %8 = load i32, ptr %7, align 8, !tbaa !17
  %9 = getelementptr inbounds nuw i8, ptr %5, i64 12
  %10 = load i32, ptr %9, align 4, !tbaa !20
  %11 = add nsw i32 %10, %2
  %12 = icmp sgt i32 %11, %8
  br i1 %12, label %13, label %20

13:                                               ; preds = %3
  %14 = shl nsw i32 %8, 1
  %15 = icmp sgt i32 %11, %14
  br i1 %15, label %16, label %17

16:                                               ; preds = %13
  tail call void @raiseQASMBufferOverflow(ptr noundef nonnull @__func__.addStringToQASM) #16
  br label %17

17:                                               ; preds = %16, %13
  %18 = sext i32 %14 to i64
  %19 = tail call noalias ptr @malloc(i64 noundef %18) #15
  %strcpy = tail call ptr @strcpy(ptr noundef nonnull dereferenceable(1) %19, ptr noundef nonnull dereferenceable(1) %6)
  tail call void @free(ptr noundef %6) #16
  store i32 %14, ptr %7, align 8, !tbaa !17
  store ptr %19, ptr %5, align 8, !tbaa !18
  br label %20

20:                                               ; preds = %17, %3
  %.020 = phi i32 [ %14, %17 ], [ %8, %3 ]
  %.0 = phi ptr [ %19, %17 ], [ %6, %3 ]
  %21 = sext i32 %10 to i64
  %22 = getelementptr inbounds i8, ptr %.0, i64 %21
  %23 = sub nsw i32 %.020, %10
  %24 = sext i32 %23 to i64
  %25 = tail call i32 (ptr, i64, ptr, ...) @snprintf(ptr noundef %22, i64 noundef %24, ptr noundef nonnull @.str.3, ptr noundef %1) #16
  %26 = load ptr, ptr %4, align 8, !tbaa !4
  %27 = getelementptr inbounds nuw i8, ptr %26, i64 12
  %28 = load i32, ptr %27, align 4, !tbaa !20
  %29 = add nsw i32 %28, %25
  store i32 %29, ptr %27, align 4, !tbaa !20
  ret void
}